; Function Attrs: mustprogress uwtable
define hidden noundef zeroext i1 @_ZNK2cv3ccm10ColorSpaceltERKS1_(ptr noundef nonnull align 8 dereferenceable(200) %0, ptr noundef nonnull align 8 dereferenceable(200) %1) local_unnamed_addr #3 align 2 personality ptr @__gxx_personality_v0 {
  %3 = getelementptr inbounds nuw i8, ptr %0, i64 8
  %4 = getelementptr inbounds nuw i8, ptr %1, i64 8
  %5 = tail call noundef zeroext i1 @_ZNK2cv3ccm2IOltERKS1_(ptr noundef nonnull align 8 dereferenceable(72) %3, ptr noundef nonnull align 8 dereferenceable(72) %4)
  br i1 %5, label %_ZSteqIcEN9__gnu_cxx11__enable_ifIXsr9__is_charIT_EE7__valueEbE6__typeERKNSt7__cxx1112basic_stringIS2_St11char_traitsIS2_ESaIS2_EEESC_.exit.thread7, label %6

6:                                                ; preds = %2
  %7 = tail call noundef zeroext i1 @_ZNK2cv3ccm2IOeqERKS1_(ptr noundef nonnull align 8 dereferenceable(72) %3, ptr noundef nonnull align 8 dereferenceable(72) %4)
  br i1 %7, label %8, label %21

8:                                                ; preds = %6
  %9 = getelementptr inbounds nuw i8, ptr %0, i64 88
  %10 = load i64, ptr %9, align 8, !tbaa !3
  %11 = getelementptr inbounds nuw i8, ptr %1, i64 88
  %12 = load i64, ptr %11, align 8, !tbaa !3
  %.sroa.speculated.i.i = tail call i64 @llvm.umin.i64(i64 %12, i64 %10)
  %13 = icmp eq i64 %.sroa.speculated.i.i, 0
  br i1 %13, label %_ZNSt11char_traitsIcE7compareEPKcS2_m.exit.thread.i.i, label %_ZNSt11char_traitsIcE7compareEPKcS2_m.exit.i.i

_ZNSt11char_traitsIcE7compareEPKcS2_m.exit.i.i:   ; preds = %8
  %14 = getelementptr inbounds nuw i8, ptr %1, i64 80
  %15 = getelementptr inbounds nuw i8, ptr %0, i64 80
  %16 = load ptr, ptr %14, align 8, !tbaa !11
  %17 = load ptr, ptr %15, align 8, !tbaa !11
  %18 = tail call i32 @memcmp(ptr noundef %17, ptr noundef %16, i64 noundef %.sroa.speculated.i.i) #35
  %.not.i.i = icmp eq i32 %18, 0
  br i1 %.not.i.i, label %_ZNSt11char_traitsIcE7compareEPKcS2_m.exit.thread.i.i, label %_ZStltIcSt11char_traitsIcESaIcEEbRKNSt7__cxx1112basic_stringIT_T0_T1_EESA_.exit

_ZNSt11char_traitsIcE7compareEPKcS2_m.exit.thread.i.i: ; preds = %_ZNSt11char_traitsIcE7compareEPKcS2_m.exit.i.i, %8
  %19 = sub i64 %10, %12
  %spec.select7.i.i.i = tail call i64 @llvm.smax.i64(i64 %19, i64 -2147483648)
  %.08.i.i.i = tail call i64 @llvm.smin.i64(i64 %spec.select7.i.i.i, i64 2147483647)
  %.0.i6.i.i = trunc nsw i64 %.08.i.i.i to i32
  br label %_ZStltIcSt11char_traitsIcESaIcEEbRKNSt7__cxx1112basic_stringIT_T0_T1_EESA_.exit

_ZStltIcSt11char_traitsIcESaIcEEbRKNSt7__cxx1112basic_stringIT_T0_T1_EESA_.exit: ; preds = %_ZNSt11char_traitsIcE7compareEPKcS2_m.exit.i.i, %_ZNSt11char_traitsIcE7compareEPKcS2_m.exit.thread.i.i
  %.0.i.i = phi i32 [ %18, %_ZNSt11char_traitsIcE7compareEPKcS2_m.exit.i.i ], [ %.0.i6.i.i, %_ZNSt11char_traitsIcE7compareEPKcS2_m.exit.thread.i.i ]
  %20 = icmp slt i32 %.0.i.i, 0
  br i1 %20, label %_ZSteqIcEN9__gnu_cxx11__enable_ifIXsr9__is_charIT_EE7__valueEbE6__typeERKNSt7__cxx1112basic_stringIS2_St11char_traitsIS2_ESaIS2_EEESC_.exit.thread7, label %21

21:                                               ; preds = %_ZStltIcSt11char_traitsIcESaIcEEbRKNSt7__cxx1112basic_stringIT_T0_T1_EESA_.exit, %6
  %22 = tail call noundef zeroext i1 @_ZNK2cv3ccm2IOeqERKS1_(ptr noundef nonnull align 8 dereferenceable(72) %3, ptr noundef nonnull align 8 dereferenceable(72) %4)
  br i1 %22, label %23, label %_ZSteqIcEN9__gnu_cxx11__enable_ifIXsr9__is_charIT_EE7__valueEbE6__typeERKNSt7__cxx1112basic_stringIS2_St11char_traitsIS2_ESaIS2_EEESC_.exit.thread7

23:                                               ; preds = %21
  %24 = getelementptr inbounds nuw i8, ptr %0, i64 80
  %25 = getelementptr inbounds nuw i8, ptr %1, i64 80
  %26 = getelementptr inbounds nuw i8, ptr %0, i64 88
  %27 = load i64, ptr %26, align 8, !tbaa !3
  %28 = getelementptr inbounds nuw i8, ptr %1, i64 88
  %29 = load i64, ptr %28, align 8, !tbaa !3
  %30 = icmp eq i64 %27, %29
  br i1 %30, label %31, label %_ZSteqIcEN9__gnu_cxx11__enable_ifIXsr9__is_charIT_EE7__valueEbE6__typeERKNSt7__cxx1112basic_stringIS2_St11char_traitsIS2_ESaIS2_EEESC_.exit.thread7

31:                                               ; preds = %23
  %32 = icmp eq i64 %27, 0
  br i1 %32, label %_ZSteqIcEN9__gnu_cxx11__enable_ifIXsr9__is_charIT_EE7__valueEbE6__typeERKNSt7__cxx1112basic_stringIS2_St11char_traitsIS2_ESaIS2_EEESC_.exit.thread, label %_ZSteqIcEN9__gnu_cxx11__enable_ifIXsr9__is_charIT_EE7__valueEbE6__typeERKNSt7__cxx1112basic_stringIS2_St11char_traitsIS2_ESaIS2_EEESC_.exit

_ZSteqIcEN9__gnu_cxx11__enable_ifIXsr9__is_charIT_EE7__valueEbE6__typeERKNSt7__cxx1112basic_stringIS2_St11char_traitsIS2_ESaIS2_EEESC_.exit: ; preds = %31
  %33 = load ptr, ptr %25, align 8, !tbaa !11
  %34 = load ptr, ptr %24, align 8, !tbaa !11
  %bcmp.i = tail call i32 @bcmp(ptr %34, ptr %33, i64 %27)
  %35 = icmp eq i32 %bcmp.i, 0
  br i1 %35, label %_ZSteqIcEN9__gnu_cxx11__enable_ifIXsr9__is_charIT_EE7__valueEbE6__typeERKNSt7__cxx1112basic_stringIS2_St11char_traitsIS2_ESaIS2_EEESC_.exit.thread, label %_ZSteqIcEN9__gnu_cxx11__enable_ifIXsr9__is_charIT_EE7__valueEbE6__typeERKNSt7__cxx1112basic_stringIS2_St11char_traitsIS2_ESaIS2_EEESC_.exit.thread7

_ZSteqIcEN9__gnu_cxx11__enable_ifIXsr9__is_charIT_EE7__valueEbE6__typeERKNSt7__cxx1112basic_stringIS2_St11char_traitsIS2_ESaIS2_EEESC_.exit.thread: ; preds = %31, %_ZSteqIcEN9__gnu_cxx11__enable_ifIXsr9__is_charIT_EE7__valueEbE6__typeERKNSt7__cxx1112basic_stringIS2_St11char_traitsIS2_ESaIS2_EEESC_.exit
  %36 = getelementptr inbounds nuw i8, ptr %0, i64 112
  %37 = load i8, ptr %36, align 8, !tbaa !21, !range !30, !noundef !31
  %38 = getelementptr inbounds nuw i8, ptr %1, i64 112
  %39 = load i8, ptr %38, align 8, !tbaa !21, !range !30, !noundef !31
  %40 = icmp samesign ult i8 %37, %39
  br label %_ZSteqIcEN9__gnu_cxx11__enable_ifIXsr9__is_charIT_EE7__valueEbE6__typeERKNSt7__cxx1112basic_stringIS2_St11char_traitsIS2_ESaIS2_EEESC_.exit.thread7

_ZSteqIcEN9__gnu_cxx11__enable_ifIXsr9__is_charIT_EE7__valueEbE6__typeERKNSt7__cxx1112basic_stringIS2_St11char_traitsIS2_ESaIS2_EEESC_.exit.thread7: ; preds = %23, %21, %_ZSteqIcEN9__gnu_cxx11__enable_ifIXsr9__is_charIT_EE7__valueEbE6__typeERKNSt7__cxx1112basic_stringIS2_St11char_traitsIS2_ESaIS2_EEESC_.exit, %_ZSteqIcEN9__gnu_cxx11__enable_ifIXsr9__is_charIT_EE7__valueEbE6__typeERKNSt7__cxx1112basic_stringIS2_St11char_traitsIS2_ESaIS2_EEESC_.exit.thread, %_ZStltIcSt11char_traitsIcESaIcEEbRKNSt7__cxx1112basic_stringIT_T0_T1_EESA_.exit, %2
  %41 = phi i1 [ true, %_ZStltIcSt11char_traitsIcESaIcEEbRKNSt7__cxx1112basic_stringIT_T0_T1_EESA_.exit ], [ true, %2 ], [ false, %_ZSteqIcEN9__gnu_cxx11__enable_ifIXsr9__is_charIT_EE7__valueEbE6__typeERKNSt7__cxx1112basic_stringIS2_St11char_traitsIS2_ESaIS2_EEESC_.exit ], [ false, %21 ], [ %40, %_ZSteqIcEN9__gnu_cxx11__enable_ifIXsr9__is_charIT_EE7__valueEbE6__typeERKNSt7__cxx1112basic_stringIS2_St11char_traitsIS2_ESaIS2_EEESC_.exit.thread ], [ false, %23 ]
  ret i1 %41
}